; Function Attrs: nounwind uwtable
define hidden noundef ptr @DH_new() local_unnamed_addr #0 {
entry:
  %calloc = tail call dereferenceable_or_null(160) ptr @calloc(i64 1, i64 160)
  %cmp = icmp eq ptr %calloc, null
  br i1 %cmp, label %if.then, label %if.end

if.then:                                          ; preds = %entry
  tail call void @ERR_put_error(i32 noundef 5, i32 noundef 0, i32 noundef 65, ptr noundef nonnull @.str, i32 noundef 79) #4
  br label %return

if.end:                                           ; preds = %entry
  %method_mont_p_lock = getelementptr inbounds nuw i8, ptr %calloc, i64 40
  tail call void @CRYPTO_MUTEX_init(ptr noundef nonnull %method_mont_p_lock) #4
  %references = getelementptr inbounds nuw i8, ptr %calloc, i64 148
  store i32 1, ptr %references, align 4
  %ex_data = getelementptr inbounds nuw i8, ptr %calloc, i64 152
  tail call void @CRYPTO_new_ex_data(ptr noundef nonnull %ex_data) #4
  br label %return

return:                                           ; preds = %if.end, %if.then
  ret ptr %calloc
}